; Function Attrs: mustprogress nounwind uwtable
define internal fastcc void @_ZN12_GLOBAL__N_112StmtProfiler20VisitObjCIvarRefExprEPKN5clang15ObjCIvarRefExprE(ptr noundef nonnull align 8 dereferenceable(18) %0, ptr noundef %1) unnamed_addr #0 align 2 {
  tail call fastcc void @_ZN12_GLOBAL__N_112StmtProfiler9VisitStmtEPKN5clang4StmtE(ptr noundef nonnull align 8 dereferenceable(18) %0, ptr noundef %1)
  %3 = getelementptr inbounds nuw i8, ptr %1, i64 16
  %4 = load ptr, ptr %3, align 8
  %5 = load ptr, ptr %0, align 8
  %6 = getelementptr inbounds nuw i8, ptr %5, i64 24
  %7 = load ptr, ptr %6, align 8
  tail call void %7(ptr noundef nonnull align 8 dereferenceable(18) %0, ptr noundef %4) #11
  %8 = getelementptr inbounds nuw i8, ptr %0, i64 8
  %9 = load ptr, ptr %8, align 8
  %10 = getelementptr inbounds nuw i8, ptr %1, i64 40
  %11 = load i8, ptr %10, align 8
  %12 = tail call noundef i64 @_ZNK4llvm15SmallVectorBaseIjE4sizeEv(ptr noundef nonnull align 8 dereferenceable(144) %9) #11
  %13 = add i64 %12, 1
  %14 = tail call noundef i64 @_ZNK4llvm15SmallVectorBaseIjE8capacityEv(ptr noundef nonnull align 8 dereferenceable(144) %9) #11
  %.not.i.i.i.i.i = icmp ugt i64 %13, %14
  br i1 %.not.i.i.i.i.i, label %15, label %_ZN4llvm16FoldingSetNodeID10AddBooleanEb.exit

15:                                               ; preds = %2
  %16 = getelementptr inbounds nuw i8, ptr %9, i64 16
  tail call void @_ZN4llvm15SmallVectorBaseIjE8grow_podEPvmm(ptr noundef nonnull align 8 dereferenceable(144) %9, ptr noundef nonnull %16, i64 noundef %13, i64 noundef 4) #11
  br label %_ZN4llvm16FoldingSetNodeID10AddBooleanEb.exit

_ZN4llvm16FoldingSetNodeID10AddBooleanEb.exit:    ; preds = %2, %15
  %17 = and i8 %11, 1
  %18 = zext nneg i8 %17 to i32
  %19 = load ptr, ptr %9, align 8
  %20 = tail call noundef i64 @_ZNK4llvm15SmallVectorBaseIjE4sizeEv(ptr noundef nonnull align 8 dereferenceable(144) %9) #11
  %21 = getelementptr inbounds i32, ptr %19, i64 %20
  store i32 %18, ptr %21, align 1
  %22 = tail call noundef i64 @_ZNK4llvm15SmallVectorBaseIjE4sizeEv(ptr noundef nonnull align 8 dereferenceable(144) %9) #11
  %23 = add i64 %22, 1
  tail call void @_ZN4llvm15SmallVectorBaseIjE8set_sizeEm(ptr noundef nonnull align 8 dereferenceable(144) %9, i64 noundef %23) #11
  %24 = load ptr, ptr %8, align 8
  %25 = load i8, ptr %10, align 8
  %26 = tail call noundef i64 @_ZNK4llvm15SmallVectorBaseIjE4sizeEv(ptr noundef nonnull align 8 dereferenceable(144) %24) #11
  %27 = add i64 %26, 1
  %28 = tail call noundef i64 @_ZNK4llvm15SmallVectorBaseIjE8capacityEv(ptr noundef nonnull align 8 dereferenceable(144) %24) #11
  %.not.i.i.i.i.i5 = icmp ugt i64 %27, %28
  br i1 %.not.i.i.i.i.i5, label %29, label %_ZN4llvm16FoldingSetNodeID10AddBooleanEb.exit6

29:                                               ; preds = %_ZN4llvm16FoldingSetNodeID10AddBooleanEb.exit
  %30 = getelementptr inbounds nuw i8, ptr %24, i64 16
  tail call void @_ZN4llvm15SmallVectorBaseIjE8grow_podEPvmm(ptr noundef nonnull align 8 dereferenceable(144) %24, ptr noundef nonnull %30, i64 noundef %27, i64 noundef 4) #11
  br label %_ZN4llvm16FoldingSetNodeID10AddBooleanEb.exit6

_ZN4llvm16FoldingSetNodeID10AddBooleanEb.exit6:   ; preds = %_ZN4llvm16FoldingSetNodeID10AddBooleanEb.exit, %29
  %31 = lshr i8 %25, 1
  %.lobit = and i8 %31, 1
  %32 = zext nneg i8 %.lobit to i32
  %33 = load ptr, ptr %24, align 8
  %34 = tail call noundef i64 @_ZNK4llvm15SmallVectorBaseIjE4sizeEv(ptr noundef nonnull align 8 dereferenceable(144) %24) #11
  %35 = getelementptr inbounds i32, ptr %33, i64 %34
  store i32 %32, ptr %35, align 1
  %36 = tail call noundef i64 @_ZNK4llvm15SmallVectorBaseIjE4sizeEv(ptr noundef nonnull align 8 dereferenceable(144) %24) #11
  %37 = add i64 %36, 1
  tail call void @_ZN4llvm15SmallVectorBaseIjE8set_sizeEm(ptr noundef nonnull align 8 dereferenceable(144) %24, i64 noundef %37) #11
  ret void
}